; Listing generated by Microsoft (R) Optimizing Compiler Version 19.28.29335.0 

include listing.inc

INCLUDELIB MSVCRTD
INCLUDELIB OLDNAMES

msvcjmc	SEGMENT
__D0D318F8_pch@h DB 01H
__BD00935D_windows@pch DB 01H
__8C81CA59_org_bv_com_windows_jni_BVNativeJNI@cpp DB 01H
__D916AFA8_jni@h DB 01H
__051DE99D_stdio@h DB 01H
__A4F2CB84_corecrt_wstdio@h DB 01H
__79EDBDA6_corecrt_stdio_config@h DB 01H
msvcjmc	ENDS
PUBLIC	?NewLongArray@JNIEnv_@@QEAAPEAV_jlongArray@@J@Z	; JNIEnv_::NewLongArray
PUBLIC	?SetLongArrayRegion@JNIEnv_@@QEAAXPEAV_jlongArray@@JJPEB_J@Z ; JNIEnv_::SetLongArrayRegion
PUBLIC	Java_org_bv_com_windows_jni_BVNativeJNI_ticks
PUBLIC	__JustMyCode_Default
EXTRN	__imp_GetTickCount64:PROC
EXTRN	_RTC_CheckStackVars:PROC
EXTRN	_RTC_InitBase:PROC
EXTRN	_RTC_Shutdown:PROC
EXTRN	__CheckForDebuggerJustMyCode:PROC
EXTRN	__GSHandlerCheck:PROC
EXTRN	__security_check_cookie:PROC
EXTRN	__security_cookie:QWORD
;	COMDAT pdata
pdata	SEGMENT
$pdata$?NewLongArray@JNIEnv_@@QEAAPEAV_jlongArray@@J@Z DD imagerel $LN3
	DD	imagerel $LN3+97
	DD	imagerel $unwind$?NewLongArray@JNIEnv_@@QEAAPEAV_jlongArray@@J@Z
pdata	ENDS
;	COMDAT pdata
pdata	SEGMENT
$pdata$?SetLongArrayRegion@JNIEnv_@@QEAAXPEAV_jlongArray@@JJPEB_J@Z DD imagerel $LN3
	DD	imagerel $LN3+135
	DD	imagerel $unwind$?SetLongArrayRegion@JNIEnv_@@QEAAXPEAV_jlongArray@@JJPEB_J@Z
pdata	ENDS
;	COMDAT pdata
pdata	SEGMENT
$pdata$Java_org_bv_com_windows_jni_BVNativeJNI_ticks DD imagerel $LN4
	DD	imagerel $LN4+203
	DD	imagerel $unwind$Java_org_bv_com_windows_jni_BVNativeJNI_ticks
pdata	ENDS
;	COMDAT rtc$TMZ
rtc$TMZ	SEGMENT
_RTC_Shutdown.rtc$TMZ DQ FLAT:_RTC_Shutdown
rtc$TMZ	ENDS
;	COMDAT rtc$IMZ
rtc$IMZ	SEGMENT
_RTC_InitBase.rtc$IMZ DQ FLAT:_RTC_InitBase
rtc$IMZ	ENDS
;	COMDAT xdata
xdata	SEGMENT
$unwind$Java_org_bv_com_windows_jni_BVNativeJNI_ticks DD 035054019H
	DD	01133318H
	DD	0700c0029H
	DD	0500bH
	DD	imagerel __GSHandlerCheck
	DD	0138H
xdata	ENDS
;	COMDAT CONST
CONST	SEGMENT
Java_org_bv_com_windows_jni_BVNativeJNI_ticks$rtcName$0 DB 064H
	DB	061H
	DB	074H
	DB	061H
	DB	00H
	ORG $+11
Java_org_bv_com_windows_jni_BVNativeJNI_ticks$rtcVarDesc DD 058H
	DD	010H
	DQ	FLAT:Java_org_bv_com_windows_jni_BVNativeJNI_ticks$rtcName$0
	ORG $+48
Java_org_bv_com_windows_jni_BVNativeJNI_ticks$rtcFrameData DD 01H
	DD	00H
	DQ	FLAT:Java_org_bv_com_windows_jni_BVNativeJNI_ticks$rtcVarDesc
CONST	ENDS
;	COMDAT xdata
xdata	SEGMENT
$unwind$?SetLongArrayRegion@JNIEnv_@@QEAAXPEAV_jlongArray@@JJPEB_J@Z DD 035053901H
	DD	011d3322H
	DD	07016001fH
	DD	05015H
xdata	ENDS
;	COMDAT xdata
xdata	SEGMENT
$unwind$?NewLongArray@JNIEnv_@@QEAAPEAV_jlongArray@@J@Z DD 025052e01H
	DD	01122317H
	DD	0700b001dH
	DD	0500aH
xdata	ENDS
; Function compile flags: /Odt
;	COMDAT __JustMyCode_Default
_TEXT	SEGMENT
__JustMyCode_Default PROC				; COMDAT
	ret	0
__JustMyCode_Default ENDP
_TEXT	ENDS
; Function compile flags: /Odtp /RTCsu /ZI
;	COMDAT Java_org_bv_com_windows_jni_BVNativeJNI_ticks
_TEXT	SEGMENT
result$ = 8
data$ = 40
__$ArrayPad$ = 264
env$ = 304
that$ = 312
Java_org_bv_com_windows_jni_BVNativeJNI_ticks PROC	; COMDAT
; File G:\Users\jackd\eclipse-workspace\windows\bvnative\org_bv_com_windows_jni_BVNativeJNI.cpp
; Line 11
$LN4:
	mov	QWORD PTR [rsp+16], rdx
	mov	QWORD PTR [rsp+8], rcx
	push	rbp
	push	rdi
	sub	rsp, 328				; 00000148H
	lea	rbp, QWORD PTR [rsp+48]
	mov	rdi, rsp
	mov	ecx, 82					; 00000052H
	mov	eax, -858993460				; ccccccccH
	rep stosd
	mov	rcx, QWORD PTR [rsp+360]
	mov	rax, QWORD PTR __security_cookie
	xor	rax, rbp
	mov	QWORD PTR __$ArrayPad$[rbp], rax
	lea	rcx, OFFSET FLAT:__8C81CA59_org_bv_com_windows_jni_BVNativeJNI@cpp
	call	__CheckForDebuggerJustMyCode
; Line 13
	mov	edx, 2
	mov	rcx, QWORD PTR env$[rbp]
	call	?NewLongArray@JNIEnv_@@QEAAPEAV_jlongArray@@J@Z ; JNIEnv_::NewLongArray
	mov	QWORD PTR result$[rbp], rax
; Line 14
	cmp	QWORD PTR result$[rbp], 0
	jne	SHORT $LN2@Java_org_b
; Line 15
	xor	eax, eax
	jmp	SHORT $LN1@Java_org_b
$LN2@Java_org_b:
; Line 17
	call	QWORD PTR __imp_GetTickCount64
	mov	QWORD PTR data$[rbp], rax
; Line 18
	lea	rax, QWORD PTR data$[rbp]
	mov	QWORD PTR [rsp+32], rax
	mov	r9d, 2
	xor	r8d, r8d
	mov	rdx, QWORD PTR result$[rbp]
	mov	rcx, QWORD PTR env$[rbp]
	call	?SetLongArrayRegion@JNIEnv_@@QEAAXPEAV_jlongArray@@JJPEB_J@Z ; JNIEnv_::SetLongArrayRegion
; Line 19
	mov	rax, QWORD PTR result$[rbp]
$LN1@Java_org_b:
; Line 20
	mov	rdi, rax
	lea	rcx, QWORD PTR [rbp-48]
	lea	rdx, OFFSET FLAT:Java_org_bv_com_windows_jni_BVNativeJNI_ticks$rtcFrameData
	call	_RTC_CheckStackVars
	mov	rax, rdi
	mov	rcx, QWORD PTR __$ArrayPad$[rbp]
	xor	rcx, rbp
	call	__security_check_cookie
	lea	rsp, QWORD PTR [rbp+280]
	pop	rdi
	pop	rbp
	ret	0
Java_org_bv_com_windows_jni_BVNativeJNI_ticks ENDP
_TEXT	ENDS
; Function compile flags: /Odtp /RTCsu /ZI
;	COMDAT ?SetLongArrayRegion@JNIEnv_@@QEAAXPEAV_jlongArray@@JJPEB_J@Z
_TEXT	SEGMENT
this$ = 224
array$ = 232
start$ = 240
len$ = 248
buf$ = 256
?SetLongArrayRegion@JNIEnv_@@QEAAXPEAV_jlongArray@@JJPEB_J@Z PROC ; JNIEnv_::SetLongArrayRegion, COMDAT
; File C:\PROGRAM FILES\JAVA\JDK-15.0.1\INCLUDE\jni.h
; Line 1789
$LN3:
	mov	DWORD PTR [rsp+32], r9d
	mov	DWORD PTR [rsp+24], r8d
	mov	QWORD PTR [rsp+16], rdx
	mov	QWORD PTR [rsp+8], rcx
	push	rbp
	push	rdi
	sub	rsp, 248				; 000000f8H
	lea	rbp, QWORD PTR [rsp+48]
	mov	rdi, rsp
	mov	ecx, 62					; 0000003eH
	mov	eax, -858993460				; ccccccccH
	rep stosd
	mov	rcx, QWORD PTR [rsp+280]
	lea	rcx, OFFSET FLAT:__D916AFA8_jni@h
	call	__CheckForDebuggerJustMyCode
; Line 1790
	mov	rax, QWORD PTR this$[rbp]
	mov	rax, QWORD PTR [rax]
	mov	rcx, QWORD PTR buf$[rbp]
	mov	QWORD PTR [rsp+32], rcx
	mov	r9d, DWORD PTR len$[rbp]
	mov	r8d, DWORD PTR start$[rbp]
	mov	rdx, QWORD PTR array$[rbp]
	mov	rcx, QWORD PTR this$[rbp]
	call	QWORD PTR [rax+1696]
; Line 1791
	lea	rsp, QWORD PTR [rbp+200]
	pop	rdi
	pop	rbp
	ret	0
?SetLongArrayRegion@JNIEnv_@@QEAAXPEAV_jlongArray@@JJPEB_J@Z ENDP ; JNIEnv_::SetLongArrayRegion
_TEXT	ENDS
; Function compile flags: /Odtp /RTCsu /ZI
;	COMDAT ?NewLongArray@JNIEnv_@@QEAAPEAV_jlongArray@@J@Z
_TEXT	SEGMENT
this$ = 224
len$ = 232
?NewLongArray@JNIEnv_@@QEAAPEAV_jlongArray@@J@Z PROC	; JNIEnv_::NewLongArray, COMDAT
; File C:\PROGRAM FILES\JAVA\JDK-15.0.1\INCLUDE\jni.h
; Line 1659
$LN3:
	mov	DWORD PTR [rsp+16], edx
	mov	QWORD PTR [rsp+8], rcx
	push	rbp
	push	rdi
	sub	rsp, 232				; 000000e8H
	lea	rbp, QWORD PTR [rsp+32]
	mov	rdi, rsp
	mov	ecx, 58					; 0000003aH
	mov	eax, -858993460				; ccccccccH
	rep stosd
	mov	rcx, QWORD PTR [rsp+264]
	lea	rcx, OFFSET FLAT:__D916AFA8_jni@h
	call	__CheckForDebuggerJustMyCode
; Line 1660
	mov	rax, QWORD PTR this$[rbp]
	mov	rax, QWORD PTR [rax]
	mov	edx, DWORD PTR len$[rbp]
	mov	rcx, QWORD PTR this$[rbp]
	call	QWORD PTR [rax+1440]
; Line 1661
	lea	rsp, QWORD PTR [rbp+200]
	pop	rdi
	pop	rbp
	ret	0
?NewLongArray@JNIEnv_@@QEAAPEAV_jlongArray@@J@Z ENDP	; JNIEnv_::NewLongArray
_TEXT	ENDS
END
